target datalayout = "e-m:e-p270:32:32-p271:32:32-p272:64:64-i64:64-i128:128-f80:128-n8:16:32:64-S128"
target triple = "x86_64-pc-linux-gnu"

%struct._lv_arc_t = type { %struct._lv_obj_t, i32, float, float, float, float, i32, i32, i32, i8, i32, i32, float, i16 }
%struct._lv_obj_t = type { ptr, ptr, ptr, ptr, ptr, %struct.lv_area_t, i32, i16, i16 }
%struct.lv_area_t = type { i32, i32, i32, i32 }
%struct.lv_point_t = type { i32, i32 }
%union.lv_style_value_t = type { ptr }

; Function Attrs: inlinehint nounwind uwtable
define internal zeroext i1 @lv_obj_get_style_arc_rounded(ptr noundef %0, i32 noundef %1) #3 {
  %3 = alloca ptr, align 8
  %4 = alloca i32, align 4
  %5 = alloca %union.lv_style_value_t, align 8
  store ptr %0, ptr %3, align 8, !tbaa !8
  store i32 %1, ptr %4, align 4, !tbaa !33
  call void @llvm.lifetime.start.p0(i64 8, ptr %5) #5
  %6 = load ptr, ptr %3, align 8, !tbaa !8
  %7 = load i32, ptr %4, align 4, !tbaa !33
  %8 = call ptr @lv_obj_get_style_prop(ptr noundef %6, i32 noundef %7, i8 noundef zeroext 81)
  %9 = getelementptr inbounds nuw %union.lv_style_value_t, ptr %5, i32 0, i32 0
  store ptr %8, ptr %9, align 8
  %10 = load i32, ptr %5, align 8, !tbaa !71
  %11 = icmp ne i32 %10, 0
  call void @llvm.lifetime.end.p0(i64 8, ptr %5) #5
  ret i1 %11
}

; Function Attrs: inlinehint nounwind uwtable
define internal i32 @lv_obj_get_style_arc_width(ptr noundef %0, i32 noundef %1) #3 {
  %3 = alloca ptr, align 8
  %4 = alloca i32, align 4
  %5 = alloca %union.lv_style_value_t, align 8
  store ptr %0, ptr %3, align 8, !tbaa !8
  store i32 %1, ptr %4, align 4, !tbaa !33
  call void @llvm.lifetime.start.p0(i64 8, ptr %5) #5
  %6 = load ptr, ptr %3, align 8, !tbaa !8
  %7 = load i32, ptr %4, align 4, !tbaa !33
  %8 = call ptr @lv_obj_get_style_prop(ptr noundef %6, i32 noundef %7, i8 noundef zeroext 80)
  %9 = getelementptr inbounds nuw %union.lv_style_value_t, ptr %5, i32 0, i32 0
  store ptr %8, ptr %9, align 8
  %10 = load i32, ptr %5, align 8, !tbaa !71
  call void @llvm.lifetime.end.p0(i64 8, ptr %5) #5
  ret i32 %10
}

; Function Attrs: nounwind uwtable
define internal void @inv_arc_area(ptr noundef %0, float noundef %1, float noundef %2, i32 noundef %3) #0 {
  %5 = alloca ptr, align 8
  %6 = alloca float, align 4
  %7 = alloca float, align 4
  %8 = alloca i32, align 4
  %9 = alloca ptr, align 8
  %10 = alloca i32, align 4
  %11 = alloca i32, align 4
  %12 = alloca %struct.lv_point_t, align 4
  %13 = alloca i32, align 4
  %14 = alloca i32, align 4
  %15 = alloca %struct.lv_area_t, align 4
  store ptr %0, ptr %5, align 8, !tbaa !8
  store float %1, ptr %6, align 4, !tbaa !39
  store float %2, ptr %7, align 4, !tbaa !39
  store i32 %3, ptr %8, align 4, !tbaa !33
  br label %16

16:                                               ; preds = %4
  %17 = load ptr, ptr %5, align 8, !tbaa !8
  %18 = icmp ne ptr %17, null
  br i1 %18, label %23, label %19

19:                                               ; preds = %16
  br label %20

20:                                               ; preds = %19
  br label %21

21:                                               ; preds = %20
  br label %22

22:                                               ; preds = %21, %22
  br label %22

23:                                               ; preds = %16
  br label %24

24:                                               ; preds = %23
  %25 = load ptr, ptr %5, align 8, !tbaa !8
  %26 = call zeroext i1 @lv_obj_is_visible(ptr noundef %25)
  %27 = zext i1 %26 to i32
  %28 = icmp eq i32 %27, 0
  br i1 %28, label %29, label %30

29:                                               ; preds = %24
  br label %95

30:                                               ; preds = %24
  call void @llvm.lifetime.start.p0(i64 8, ptr %9) #5
  %31 = load ptr, ptr %5, align 8, !tbaa !8
  store ptr %31, ptr %9, align 8, !tbaa !10
  %32 = load float, ptr %6, align 4, !tbaa !39
  %33 = load float, ptr %7, align 4, !tbaa !39
  %34 = fcmp oeq float %32, %33
  br i1 %34, label %35, label %36

35:                                               ; preds = %30
  store i32 1, ptr %10, align 4
  br label %93

36:                                               ; preds = %30
  %37 = load float, ptr %6, align 4, !tbaa !39
  %38 = fcmp ogt float %37, 3.600000e+02
  br i1 %38, label %39, label %42

39:                                               ; preds = %36
  %40 = load float, ptr %6, align 4, !tbaa !39
  %41 = fsub float %40, 3.600000e+02
  store float %41, ptr %6, align 4, !tbaa !39
  br label %42

42:                                               ; preds = %39, %36
  %43 = load float, ptr %7, align 4, !tbaa !39
  %44 = fcmp ogt float %43, 3.600000e+02
  br i1 %44, label %45, label %48

45:                                               ; preds = %42
  %46 = load float, ptr %7, align 4, !tbaa !39
  %47 = fsub float %46, 3.600000e+02
  store float %47, ptr %7, align 4, !tbaa !39
  br label %48

48:                                               ; preds = %45, %42
  %49 = load ptr, ptr %9, align 8, !tbaa !10
  %50 = getelementptr inbounds nuw %struct._lv_arc_t, ptr %49, i32 0, i32 1
  %51 = load i32, ptr %50, align 8, !tbaa !12
  %52 = sitofp i32 %51 to float
  %53 = load float, ptr %6, align 4, !tbaa !39
  %54 = fadd float %53, %52
  store float %54, ptr %6, align 4, !tbaa !39
  %55 = load ptr, ptr %9, align 8, !tbaa !10
  %56 = getelementptr inbounds nuw %struct._lv_arc_t, ptr %55, i32 0, i32 1
  %57 = load i32, ptr %56, align 8, !tbaa !12
  %58 = sitofp i32 %57 to float
  %59 = load float, ptr %7, align 4, !tbaa !39
  %60 = fadd float %59, %58
  store float %60, ptr %7, align 4, !tbaa !39
  %61 = load float, ptr %6, align 4, !tbaa !39
  %62 = fcmp ogt float %61, 3.600000e+02
  br i1 %62, label %63, label %66

63:                                               ; preds = %48
  %64 = load float, ptr %6, align 4, !tbaa !39
  %65 = fsub float %64, 3.600000e+02
  store float %65, ptr %6, align 4, !tbaa !39
  br label %66

66:                                               ; preds = %63, %48
  %67 = load float, ptr %7, align 4, !tbaa !39
  %68 = fcmp ogt float %67, 3.600000e+02
  br i1 %68, label %69, label %72

69:                                               ; preds = %66
  %70 = load float, ptr %7, align 4, !tbaa !39
  %71 = fsub float %70, 3.600000e+02
  store float %71, ptr %7, align 4, !tbaa !39
  br label %72

72:                                               ; preds = %69, %66
  call void @llvm.lifetime.start.p0(i64 4, ptr %11) #5
  call void @llvm.lifetime.start.p0(i64 8, ptr %12) #5
  %73 = load ptr, ptr %5, align 8, !tbaa !8
  call void @get_center(ptr noundef %73, ptr noundef %12, ptr noundef %11)
  call void @llvm.lifetime.start.p0(i64 4, ptr %13) #5
  %74 = load ptr, ptr %5, align 8, !tbaa !8
  %75 = load i32, ptr %8, align 4, !tbaa !33
  %76 = call i32 @lv_obj_get_style_arc_width(ptr noundef %74, i32 noundef %75)
  store i32 %76, ptr %13, align 4, !tbaa !33
  call void @llvm.lifetime.start.p0(i64 4, ptr %14) #5
  %77 = load ptr, ptr %5, align 8, !tbaa !8
  %78 = load i32, ptr %8, align 4, !tbaa !33
  %79 = call zeroext i1 @lv_obj_get_style_arc_rounded(ptr noundef %77, i32 noundef %78)
  %80 = zext i1 %79 to i32
  store i32 %80, ptr %14, align 4, !tbaa !33
  call void @llvm.lifetime.start.p0(i64 16, ptr %15) #5
  %81 = getelementptr inbounds nuw %struct.lv_point_t, ptr %12, i32 0, i32 0
  %82 = load i32, ptr %81, align 4, !tbaa !36
  %83 = getelementptr inbounds nuw %struct.lv_point_t, ptr %12, i32 0, i32 1
  %84 = load i32, ptr %83, align 4, !tbaa !38
  %85 = load i32, ptr %11, align 4, !tbaa !33
  %86 = trunc i32 %85 to i16
  %87 = load float, ptr %6, align 4, !tbaa !39
  %88 = load float, ptr %7, align 4, !tbaa !39
  %89 = load i32, ptr %13, align 4, !tbaa !33
  %90 = load i32, ptr %14, align 4, !tbaa !33
  %91 = icmp ne i32 %90, 0
  call void @lv_draw_arc_get_area(i32 noundef %82, i32 noundef %84, i16 noundef zeroext %86, float noundef %87, float noundef %88, i32 noundef %89, i1 noundef zeroext %91, ptr noundef %15)
  %92 = load ptr, ptr %5, align 8, !tbaa !8
  call void @lv_obj_invalidate_area(ptr noundef %92, ptr noundef %15)
  call void @llvm.lifetime.end.p0(i64 16, ptr %15) #5
  call void @llvm.lifetime.end.p0(i64 4, ptr %14) #5
  call void @llvm.lifetime.end.p0(i64 4, ptr %13) #5
  call void @llvm.lifetime.end.p0(i64 8, ptr %12) #5
  call void @llvm.lifetime.end.p0(i64 4, ptr %11) #5
  store i32 0, ptr %10, align 4
  br label %93

93:                                               ; preds = %72, %35
  call void @llvm.lifetime.end.p0(i64 8, ptr %9) #5
  %94 = load i32, ptr %10, align 4
  switch i32 %94, label %96 [
    i32 0, label %95
    i32 1, label %95
  ]

95:                                               ; preds = %29, %93, %93
  ret void

96:                                               ; preds = %93
  unreachable
}