; Function Attrs: nounwind uwtable
define internal fastcc void @inv_arc_area(ptr noundef nonnull %0, float noundef %1, float noundef %2, i32 noundef range(i32 0, 131073) %3) unnamed_addr #0 {
  %5 = alloca i32, align 4
  %6 = alloca %struct.lv_point_t, align 4
  %7 = alloca %struct.lv_area_t, align 4
  %8 = tail call zeroext i1 @lv_obj_is_visible(ptr noundef nonnull %0) #7
  %9 = fcmp une float %1, %2
  %or.cond.not = and i1 %9, %8
  br i1 %or.cond.not, label %10, label %35

10:                                               ; preds = %4
  %11 = fcmp ogt float %1, 3.600000e+02
  %12 = fadd float %1, -3.600000e+02
  %.0 = select i1 %11, float %12, float %1
  %13 = fcmp ogt float %2, 3.600000e+02
  %14 = fadd float %2, -3.600000e+02
  %.026 = select i1 %13, float %14, float %2
  %15 = getelementptr inbounds nuw i8, ptr %0, i64 64
  %16 = load i32, ptr %15, align 8, !tbaa !3
  %17 = sitofp i32 %16 to float
  %18 = fadd float %.0, %17
  %19 = fadd float %.026, %17
  %20 = fcmp ogt float %18, 3.600000e+02
  %21 = fadd float %18, -3.600000e+02
  %.1 = select i1 %20, float %21, float %18
  %22 = fcmp ogt float %19, 3.600000e+02
  %23 = fadd float %19, -3.600000e+02
  %.127 = select i1 %22, float %23, float %19
  call void @llvm.lifetime.start.p0(i64 4, ptr nonnull %5) #7
  call void @llvm.lifetime.start.p0(i64 8, ptr nonnull %6) #7
  call fastcc void @get_center(ptr noundef nonnull %0, ptr noundef %6, ptr noundef %5)
  %24 = tail call ptr @lv_obj_get_style_prop(ptr noundef nonnull %0, i32 noundef range(i32 0, 131073) %3, i8 noundef zeroext 80) #7
  %25 = ptrtoint ptr %24 to i64
  %.sroa.0.0.extract.trunc.i = trunc i64 %25 to i32
  %26 = tail call ptr @lv_obj_get_style_prop(ptr noundef nonnull %0, i32 noundef range(i32 0, 131073) %3, i8 noundef zeroext 81) #7
  %27 = ptrtoint ptr %26 to i64
  %28 = and i64 %27, 4294967295
  %29 = icmp ne i64 %28, 0
  call void @llvm.lifetime.start.p0(i64 16, ptr nonnull %7) #7
  %30 = load i32, ptr %6, align 4, !tbaa !27
  %31 = getelementptr inbounds nuw i8, ptr %6, i64 4
  %32 = load i32, ptr %31, align 4, !tbaa !29
  %33 = load i32, ptr %5, align 4, !tbaa !30
  %34 = trunc i32 %33 to i16
  call void @lv_draw_arc_get_area(i32 noundef %30, i32 noundef %32, i16 noundef zeroext %34, float noundef %.1, float noundef %.127, i32 noundef %.sroa.0.0.extract.trunc.i, i1 noundef zeroext %29, ptr noundef nonnull %7) #7
  call void @lv_obj_invalidate_area(ptr noundef nonnull %0, ptr noundef nonnull %7) #7
  call void @llvm.lifetime.end.p0(i64 16, ptr nonnull %7) #7
  call void @llvm.lifetime.end.p0(i64 8, ptr nonnull %6) #7
  call void @llvm.lifetime.end.p0(i64 4, ptr nonnull %5) #7
  br label %35

35:                                               ; preds = %10, %4
  ret void
}